target datalayout = "e-m:e-p270:32:32-p271:32:32-p272:64:64-i64:64-i128:128-f80:128-n8:16:32:64-S128"
target triple = "x86_64-pc-linux-gnu"

%"class.icu_77::MaybeStackArray" = type <{ ptr, i32, i8, [40 x i8], [3 x i8] }>
%"class.icu_77::CharString" = type { %"class.icu_77::MaybeStackArray", i32, [4 x i8] }
%"class.icu_77::internal::LocalOpenPointer" = type { %"class.icu_77::LocalPointerBase.0" }
%"class.icu_77::LocalPointerBase.0" = type { ptr }
%"class.icu_77::StringPiece" = type <{ ptr, i32, [4 x i8] }>

@progname = dso_local global ptr @.str, align 8
@stderr = external global ptr, align 8
@stdout = external global ptr, align 8
@.str.104 = private unnamed_addr constant [2 x i8] c"r\00", align 1
@.str.161 = private unnamed_addr constant [15 x i8] c"# Calling: %s\0A\00", align 1
@.str.162 = private unnamed_addr constant [24 x i8] c"%s: Error calling '%s'\0A\00", align 1
@_ZN6icu_7715MaybeStackArrayIcLi40EEC1Ev = weak_odr dso_local unnamed_addr alias void (ptr), ptr @_ZN6icu_7715MaybeStackArrayIcLi40EEC2Ev
@_ZN6icu_7715MaybeStackArrayIcLi40EED1Ev = weak_odr dso_local unnamed_addr alias void (ptr), ptr @_ZN6icu_7715MaybeStackArrayIcLi40EED2Ev

; Function Attrs: noinline noreturn nounwind uwtable
define linkonce_odr hidden void @__clang_call_terminate(ptr noundef %0) #4 comdat {
  %2 = call ptr @__cxa_begin_catch(ptr %0) #14
  call void @_ZSt9terminatev() #16
  unreachable
}

; Function Attrs: mustprogress nounwind uwtable
define linkonce_odr dso_local void @_ZN6icu_7716LocalPointerBaseI8_IO_FILEED2Ev(ptr noundef nonnull align 8 dereferenceable(8) %0) unnamed_addr #0 comdat align 2 {
  %2 = alloca ptr, align 8
  store ptr %0, ptr %2, align 8, !tbaa !108
  ret void
}

; Function Attrs: mustprogress nounwind uwtable
define weak_odr dso_local noundef ptr @_ZNK6icu_7715MaybeStackArrayIcLi40EE8getAliasEv(ptr noundef nonnull align 8 dereferenceable(53) %0) #0 comdat align 2 {
  %2 = alloca ptr, align 8
  store ptr %0, ptr %2, align 8, !tbaa !4
  %3 = load ptr, ptr %2, align 8
  %4 = getelementptr inbounds nuw %"class.icu_77::MaybeStackArray", ptr %3, i32 0, i32 0
  %5 = load ptr, ptr %4, align 8, !tbaa !9
  ret ptr %5
}

; Function Attrs: mustprogress nounwind uwtable
define linkonce_odr dso_local noundef i32 @_ZNK6icu_7711StringPiece6lengthEv(ptr noundef nonnull align 8 dereferenceable(12) %0) #0 comdat align 2 {
  %2 = alloca ptr, align 8
  store ptr %0, ptr %2, align 8, !tbaa !110
  %3 = load ptr, ptr %2, align 8
  %4 = getelementptr inbounds nuw %"class.icu_77::StringPiece", ptr %3, i32 0, i32 1
  %5 = load i32, ptr %4, align 8, !tbaa !114
  ret i32 %5
}

; Function Attrs: mustprogress nounwind uwtable
define linkonce_odr dso_local noundef ptr @_ZNK6icu_7711StringPiece4dataEv(ptr noundef nonnull align 8 dereferenceable(12) %0) #0 comdat align 2 {
  %2 = alloca ptr, align 8
  store ptr %0, ptr %2, align 8, !tbaa !110
  %3 = load ptr, ptr %2, align 8
  %4 = getelementptr inbounds nuw %"class.icu_77::StringPiece", ptr %3, i32 0, i32 0
  %5 = load ptr, ptr %4, align 8, !tbaa !112
  ret ptr %5
}

; Function Attrs: mustprogress nounwind uwtable
define linkonce_odr dso_local void @_ZN6icu_7716LocalPointerBaseI8_IO_FILEEC2EPS1_(ptr noundef nonnull align 8 dereferenceable(8) %0, ptr noundef %1) unnamed_addr #0 comdat align 2 {
  %3 = alloca ptr, align 8
  %4 = alloca ptr, align 8
  store ptr %0, ptr %3, align 8, !tbaa !108
  store ptr %1, ptr %4, align 8, !tbaa !31
  %5 = load ptr, ptr %3, align 8
  %6 = getelementptr inbounds nuw %"class.icu_77::LocalPointerBase.0", ptr %5, i32 0, i32 0
  %7 = load ptr, ptr %4, align 8, !tbaa !31
  store ptr %7, ptr %6, align 8, !tbaa !106
  ret void
}

; Function Attrs: mustprogress nounwind uwtable
define weak_odr dso_local noundef nonnull align 1 dereferenceable(1) ptr @_ZN6icu_7715MaybeStackArrayIcLi40EEixEl(ptr noundef nonnull align 8 dereferenceable(53) %0, i64 noundef %1) #0 comdat align 2 {
  %3 = alloca ptr, align 8
  %4 = alloca i64, align 8
  store ptr %0, ptr %3, align 8, !tbaa !4
  store i64 %1, ptr %4, align 8, !tbaa !19
  %5 = load ptr, ptr %3, align 8
  %6 = getelementptr inbounds nuw %"class.icu_77::MaybeStackArray", ptr %5, i32 0, i32 0
  %7 = load ptr, ptr %6, align 8, !tbaa !9
  %8 = load i64, ptr %4, align 8, !tbaa !19
  %9 = getelementptr inbounds i8, ptr %7, i64 %8
  ret ptr %9
}

; Function Attrs: mustprogress nounwind uwtable
define linkonce_odr dso_local void @_ZN6icu_7710CharStringD2Ev(ptr noundef nonnull align 8 dereferenceable(60) %0) unnamed_addr #0 comdat align 2 {
  %2 = alloca ptr, align 8
  store ptr %0, ptr %2, align 8, !tbaa !100
  %3 = load ptr, ptr %2, align 8
  %4 = getelementptr inbounds nuw %"class.icu_77::CharString", ptr %3, i32 0, i32 0
  call void @_ZN6icu_7715MaybeStackArrayIcLi40EED1Ev(ptr noundef nonnull align 8 dereferenceable(53) %4) #14
  ret void
}

; Function Attrs: mustprogress nounwind uwtable
define linkonce_odr dso_local noundef ptr @_ZNK6icu_7716LocalPointerBaseI8_IO_FILEE8getAliasEv(ptr noundef nonnull align 8 dereferenceable(8) %0) #0 comdat align 2 {
  %2 = alloca ptr, align 8
  store ptr %0, ptr %2, align 8, !tbaa !108
  %3 = load ptr, ptr %2, align 8
  %4 = getelementptr inbounds nuw %"class.icu_77::LocalPointerBase.0", ptr %3, i32 0, i32 0
  %5 = load ptr, ptr %4, align 8, !tbaa !106
  ret ptr %5
}

; Function Attrs: mustprogress nounwind uwtable
define linkonce_odr dso_local noundef signext i8 @_ZNK6icu_7716LocalPointerBaseI8_IO_FILEE6isNullEv(ptr noundef nonnull align 8 dereferenceable(8) %0) #0 comdat align 2 {
  %2 = alloca ptr, align 8
  store ptr %0, ptr %2, align 8, !tbaa !108
  %3 = load ptr, ptr %2, align 8
  %4 = getelementptr inbounds nuw %"class.icu_77::LocalPointerBase.0", ptr %3, i32 0, i32 0
  %5 = load ptr, ptr %4, align 8, !tbaa !106
  %6 = icmp eq ptr %5, null
  %7 = zext i1 %6 to i8
  ret i8 %7
}

; Function Attrs: mustprogress uwtable
define linkonce_odr dso_local void @_ZN6icu_778internal16LocalOpenPointerI8_IO_FILEXadL_Z6pcloseEEE12adoptInsteadEPS2_(ptr noundef nonnull align 8 dereferenceable(8) %0, ptr noundef %1) #1 comdat align 2 {
  %3 = alloca ptr, align 8
  %4 = alloca ptr, align 8
  store ptr %0, ptr %3, align 8, !tbaa !104
  store ptr %1, ptr %4, align 8, !tbaa !31
  %5 = load ptr, ptr %3, align 8
  %6 = getelementptr inbounds nuw %"class.icu_77::LocalPointerBase.0", ptr %5, i32 0, i32 0
  %7 = load ptr, ptr %6, align 8, !tbaa !106
  %8 = icmp ne ptr %7, null
  br i1 %8, label %9, label %13

9:                                                ; preds = %2
  %10 = getelementptr inbounds nuw %"class.icu_77::LocalPointerBase.0", ptr %5, i32 0, i32 0
  %11 = load ptr, ptr %10, align 8, !tbaa !106
  %12 = call noundef i32 @pclose(ptr noundef %11)
  br label %13

13:                                               ; preds = %9, %2
  %14 = load ptr, ptr %4, align 8, !tbaa !31
  %15 = getelementptr inbounds nuw %"class.icu_77::LocalPointerBase.0", ptr %5, i32 0, i32 0
  store ptr %14, ptr %15, align 8, !tbaa !106
  ret void
}

; Function Attrs: mustprogress nounwind uwtable
define linkonce_odr dso_local void @_ZN6icu_778internal16LocalOpenPointerI8_IO_FILEXadL_Z6pcloseEEED2Ev(ptr noundef nonnull align 8 dereferenceable(8) %0) unnamed_addr #0 comdat align 2 personality ptr @__gxx_personality_v0 {
  %2 = alloca ptr, align 8
  store ptr %0, ptr %2, align 8, !tbaa !104
  %3 = load ptr, ptr %2, align 8
  %4 = getelementptr inbounds nuw %"class.icu_77::LocalPointerBase.0", ptr %3, i32 0, i32 0
  %5 = load ptr, ptr %4, align 8, !tbaa !106
  %6 = icmp ne ptr %5, null
  br i1 %6, label %7, label %12

7:                                                ; preds = %1
  %8 = getelementptr inbounds nuw %"class.icu_77::LocalPointerBase.0", ptr %3, i32 0, i32 0
  %9 = load ptr, ptr %8, align 8, !tbaa !106
  %10 = invoke noundef i32 @pclose(ptr noundef %9)
          to label %11 unwind label %13

11:                                               ; preds = %7
  br label %12

12:                                               ; preds = %11, %1
  call void @_ZN6icu_7716LocalPointerBaseI8_IO_FILEED2Ev(ptr noundef nonnull align 8 dereferenceable(8) %3) #14
  ret void

13:                                               ; preds = %7
  %14 = landingpad { ptr, i32 }
          catch ptr null
  %15 = extractvalue { ptr, i32 } %14, 0
  call void @__clang_call_terminate(ptr %15) #16
  unreachable
}

; Function Attrs: mustprogress nounwind uwtable
define linkonce_odr dso_local noundef ptr @_ZN6icu_7710CharString4dataEv(ptr noundef nonnull align 8 dereferenceable(60) %0) #0 comdat align 2 {
  %2 = alloca ptr, align 8
  store ptr %0, ptr %2, align 8, !tbaa !100
  %3 = load ptr, ptr %2, align 8
  %4 = getelementptr inbounds nuw %"class.icu_77::CharString", ptr %3, i32 0, i32 0
  %5 = call noundef ptr @_ZNK6icu_7715MaybeStackArrayIcLi40EE8getAliasEv(ptr noundef nonnull align 8 dereferenceable(53) %4)
  ret ptr %5
}

; Function Attrs: mustprogress uwtable
define linkonce_odr dso_local noundef nonnull align 8 dereferenceable(60) ptr @_ZN6icu_7710CharString6appendENS_11StringPieceER10UErrorCode(ptr noundef nonnull align 8 dereferenceable(60) %0, ptr %1, i32 %2, ptr noundef nonnull align 4 dereferenceable(4) %3) #1 comdat align 2 {
  %5 = alloca %"class.icu_77::StringPiece", align 8
  %6 = alloca ptr, align 8
  %7 = alloca ptr, align 8
  %8 = getelementptr inbounds nuw { ptr, i32 }, ptr %5, i32 0, i32 0
  store ptr %1, ptr %8, align 8
  %9 = getelementptr inbounds nuw { ptr, i32 }, ptr %5, i32 0, i32 1
  store i32 %2, ptr %9, align 8
  store ptr %0, ptr %6, align 8, !tbaa !100
  store ptr %3, ptr %7, align 8, !tbaa !23
  %10 = load ptr, ptr %6, align 8
  %11 = call noundef ptr @_ZNK6icu_7711StringPiece4dataEv(ptr noundef nonnull align 8 dereferenceable(12) %5)
  %12 = call noundef i32 @_ZNK6icu_7711StringPiece6lengthEv(ptr noundef nonnull align 8 dereferenceable(12) %5)
  %13 = load ptr, ptr %7, align 8, !tbaa !23
  %14 = call noundef nonnull align 8 dereferenceable(60) ptr @_ZN6icu_7710CharString6appendEPKciR10UErrorCode(ptr noundef nonnull align 8 dereferenceable(60) %10, ptr noundef %11, i32 noundef %12, ptr noundef nonnull align 4 dereferenceable(4) %13)
  ret ptr %14
}

; Function Attrs: mustprogress uwtable
define linkonce_odr dso_local void @_ZN6icu_778internal16LocalOpenPointerI8_IO_FILEXadL_Z6pcloseEEEC2EPS2_(ptr noundef nonnull align 8 dereferenceable(8) %0, ptr noundef %1) unnamed_addr #1 comdat align 2 {
  %3 = alloca ptr, align 8
  %4 = alloca ptr, align 8
  store ptr %0, ptr %3, align 8, !tbaa !104
  store ptr %1, ptr %4, align 8, !tbaa !31
  %5 = load ptr, ptr %3, align 8
  %6 = load ptr, ptr %4, align 8, !tbaa !31
  call void @_ZN6icu_7716LocalPointerBaseI8_IO_FILEEC2EPS1_(ptr noundef nonnull align 8 dereferenceable(8) %5, ptr noundef %6)
  ret void
}

; Function Attrs: mustprogress uwtable
define linkonce_odr dso_local void @_ZN6icu_7710CharStringC2Ev(ptr noundef nonnull align 8 dereferenceable(60) %0) unnamed_addr #1 comdat align 2 {
  %2 = alloca ptr, align 8
  store ptr %0, ptr %2, align 8, !tbaa !100
  %3 = load ptr, ptr %2, align 8
  %4 = getelementptr inbounds nuw %"class.icu_77::CharString", ptr %3, i32 0, i32 0
  call void @_ZN6icu_7715MaybeStackArrayIcLi40EEC1Ev(ptr noundef nonnull align 8 dereferenceable(53) %4)
  %5 = getelementptr inbounds nuw %"class.icu_77::CharString", ptr %3, i32 0, i32 1
  store i32 0, ptr %5, align 8, !tbaa !102
  %6 = getelementptr inbounds nuw %"class.icu_77::CharString", ptr %3, i32 0, i32 0
  %7 = call noundef nonnull align 1 dereferenceable(1) ptr @_ZN6icu_7715MaybeStackArrayIcLi40EEixEl(ptr noundef nonnull align 8 dereferenceable(53) %6, i64 noundef 0)
  store i8 0, ptr %7, align 1, !tbaa !27
  ret void
}

; Function Attrs: mustprogress uwtable
define internal noundef signext i8 @_ZL14getPkgDataPathPKcaPcm(ptr noundef %0, i8 noundef signext %1, ptr noundef %2, i64 noundef %3) #1 personality ptr @__gxx_personality_v0 {
  %5 = alloca i8, align 1
  %6 = alloca ptr, align 8
  %7 = alloca i8, align 1
  %8 = alloca ptr, align 8
  %9 = alloca i64, align 8
  %10 = alloca %"class.icu_77::CharString", align 8
  %11 = alloca i32, align 4
  %12 = alloca %"class.icu_77::internal::LocalOpenPointer", align 8
  %13 = alloca ptr, align 8
  %14 = alloca i32, align 4
  %15 = alloca i64, align 8
  %16 = alloca %"class.icu_77::StringPiece", align 8
  %17 = alloca i32, align 4
  store ptr %0, ptr %6, align 8, !tbaa !18
  store i8 %1, ptr %7, align 1, !tbaa !27
  store ptr %2, ptr %8, align 8, !tbaa !18
  store i64 %3, ptr %9, align 8, !tbaa !19
  call void @llvm.lifetime.start.p0(i64 64, ptr %10) #14
  call void @_ZN6icu_7710CharStringC2Ev(ptr noundef nonnull align 8 dereferenceable(60) %10)
  call void @llvm.lifetime.start.p0(i64 4, ptr %11) #14
  store i32 0, ptr %11, align 4, !tbaa !16
  call void @llvm.lifetime.start.p0(i64 8, ptr %12) #14
  invoke void @_ZN6icu_778internal16LocalOpenPointerI8_IO_FILEXadL_Z6pcloseEEEC2EPS2_(ptr noundef nonnull align 8 dereferenceable(8) %12, ptr noundef null)
          to label %18 unwind label %34

18:                                               ; preds = %4
  call void @llvm.lifetime.start.p0(i64 8, ptr %15) #14
  %19 = load ptr, ptr %6, align 8, !tbaa !18
  invoke void @_ZN6icu_7711StringPieceC1EPKc(ptr noundef nonnull align 8 dereferenceable(12) %16, ptr noundef %19)
          to label %20 unwind label %38

20:                                               ; preds = %18
  %21 = getelementptr inbounds nuw { ptr, i32 }, ptr %16, i32 0, i32 0
  %22 = load ptr, ptr %21, align 8
  %23 = getelementptr inbounds nuw { ptr, i32 }, ptr %16, i32 0, i32 1
  %24 = load i32, ptr %23, align 8
  %25 = invoke noundef nonnull align 8 dereferenceable(60) ptr @_ZN6icu_7710CharString6appendENS_11StringPieceER10UErrorCode(ptr noundef nonnull align 8 dereferenceable(60) %10, ptr %22, i32 %24, ptr noundef nonnull align 4 dereferenceable(4) %11)
          to label %26 unwind label %38

26:                                               ; preds = %20
  %27 = load i8, ptr %7, align 1, !tbaa !27
  %28 = icmp ne i8 %27, 0
  br i1 %28, label %29, label %42

29:                                               ; preds = %26
  %30 = load ptr, ptr @stdout, align 8, !tbaa !31
  %31 = invoke noundef ptr @_ZN6icu_7710CharString4dataEv(ptr noundef nonnull align 8 dereferenceable(60) %10)
          to label %32 unwind label %38

32:                                               ; preds = %29
  %33 = call i32 (ptr, ptr, ...) @fprintf(ptr noundef %30, ptr noundef @.str.161, ptr noundef %31) #14
  br label %42

34:                                               ; preds = %4
  %35 = landingpad { ptr, i32 }
          cleanup
  %36 = extractvalue { ptr, i32 } %35, 0
  store ptr %36, ptr %13, align 8
  %37 = extractvalue { ptr, i32 } %35, 1
  store i32 %37, ptr %14, align 4
  br label %69

38:                                               ; preds = %56, %51, %47, %46, %44, %42, %29, %20, %18
  %39 = landingpad { ptr, i32 }
          cleanup
  %40 = extractvalue { ptr, i32 } %39, 0
  store ptr %40, ptr %13, align 8
  %41 = extractvalue { ptr, i32 } %39, 1
  store i32 %41, ptr %14, align 4
  call void @llvm.lifetime.end.p0(i64 8, ptr %15) #14
  call void @_ZN6icu_778internal16LocalOpenPointerI8_IO_FILEXadL_Z6pcloseEEED2Ev(ptr noundef nonnull align 8 dereferenceable(8) %12) #14
  br label %69

42:                                               ; preds = %32, %26
  %43 = invoke noundef ptr @_ZN6icu_7710CharString4dataEv(ptr noundef nonnull align 8 dereferenceable(60) %10)
          to label %44 unwind label %38

44:                                               ; preds = %42
  %45 = invoke noalias ptr @popen(ptr noundef %43, ptr noundef @.str.104)
          to label %46 unwind label %38

46:                                               ; preds = %44
  invoke void @_ZN6icu_778internal16LocalOpenPointerI8_IO_FILEXadL_Z6pcloseEEE12adoptInsteadEPS2_(ptr noundef nonnull align 8 dereferenceable(8) %12, ptr noundef %45)
          to label %47 unwind label %38

47:                                               ; preds = %46
  %48 = invoke noundef signext i8 @_ZNK6icu_7716LocalPointerBaseI8_IO_FILEE6isNullEv(ptr noundef nonnull align 8 dereferenceable(8) %12)
          to label %49 unwind label %38

49:                                               ; preds = %47
  %50 = icmp ne i8 %48, 0
  br i1 %50, label %60, label %51

51:                                               ; preds = %49
  %52 = load ptr, ptr %8, align 8, !tbaa !18
  %53 = load i64, ptr %9, align 8, !tbaa !19
  %54 = sub i64 %53, 1
  %55 = invoke noundef ptr @_ZNK6icu_7716LocalPointerBaseI8_IO_FILEE8getAliasEv(ptr noundef nonnull align 8 dereferenceable(8) %12)
          to label %56 unwind label %38

56:                                               ; preds = %51
  %57 = invoke i64 @fread(ptr noundef %52, i64 noundef 1, i64 noundef %54, ptr noundef %55)
          to label %58 unwind label %38

58:                                               ; preds = %56
  store i64 %57, ptr %15, align 8, !tbaa !19
  %59 = icmp ule i64 %57, 0
  br i1 %59, label %60, label %66

60:                                               ; preds = %58, %49
  %61 = load ptr, ptr @stderr, align 8, !tbaa !31
  %62 = load ptr, ptr @progname, align 8, !tbaa !18
  %63 = load ptr, ptr %6, align 8, !tbaa !18
  %64 = call i32 (ptr, ptr, ...) @fprintf(ptr noundef %61, ptr noundef @.str.162, ptr noundef %62, ptr noundef %63) #14
  %65 = load ptr, ptr %8, align 8, !tbaa !18
  store i8 0, ptr %65, align 1, !tbaa !27
  store i8 0, ptr %5, align 1
  store i32 1, ptr %17, align 4
  br label %67

66:                                               ; preds = %58
  store i8 1, ptr %5, align 1
  store i32 1, ptr %17, align 4
  br label %67

67:                                               ; preds = %66, %60
  call void @llvm.lifetime.end.p0(i64 8, ptr %15) #14
  call void @_ZN6icu_778internal16LocalOpenPointerI8_IO_FILEXadL_Z6pcloseEEED2Ev(ptr noundef nonnull align 8 dereferenceable(8) %12) #14
  call void @llvm.lifetime.end.p0(i64 8, ptr %12) #14
  call void @llvm.lifetime.end.p0(i64 4, ptr %11) #14
  call void @_ZN6icu_7710CharStringD2Ev(ptr noundef nonnull align 8 dereferenceable(60) %10) #14
  call void @llvm.lifetime.end.p0(i64 64, ptr %10) #14
  %68 = load i8, ptr %5, align 1
  ret i8 %68

69:                                               ; preds = %38, %34
  call void @llvm.lifetime.end.p0(i64 8, ptr %12) #14
  call void @llvm.lifetime.end.p0(i64 4, ptr %11) #14
  call void @_ZN6icu_7710CharStringD2Ev(ptr noundef nonnull align 8 dereferenceable(60) %10) #14
  call void @llvm.lifetime.end.p0(i64 64, ptr %10) #14
  br label %70

70:                                               ; preds = %69
  %71 = load ptr, ptr %13, align 8
  %72 = load i32, ptr %14, align 4
  %73 = insertvalue { ptr, i32 } poison, ptr %71, 0
  %74 = insertvalue { ptr, i32 } %73, i32 %72, 1
  resume { ptr, i32 } %74
}