; Function Attrs: mustprogress norecurse uwtable
define internal fastcc noundef signext range(i8 0, 2) i8 @_ZL14getPkgDataPathPKcaPcm(ptr noundef %0, i8 noundef signext %1) unnamed_addr #10 personality ptr @__gxx_personality_v0 {
  %3 = alloca %"class.icu_77::CharString", align 8
  %4 = alloca i32, align 4
  %5 = alloca %"class.icu_77::StringPiece", align 8
  call void @llvm.lifetime.start.p0(i64 64, ptr nonnull %3) #21
  call void @_ZN6icu_7715MaybeStackArrayIcLi40EEC1Ev(ptr noundef nonnull align 8 dereferenceable(60) %3)
  %6 = getelementptr inbounds nuw i8, ptr %3, i64 56
  store i32 0, ptr %6, align 8, !tbaa !58
  %7 = load ptr, ptr %3, align 8, !tbaa !4
  store i8 0, ptr %7, align 1, !tbaa !22
  call void @llvm.lifetime.start.p0(i64 4, ptr nonnull %4) #21
  store i32 0, ptr %4, align 4, !tbaa !14
  invoke void @_ZN6icu_7711StringPieceC1EPKc(ptr noundef nonnull align 8 dereferenceable(12) %5, ptr noundef %0)
          to label %8 unwind label %_ZN6icu_778internal16LocalOpenPointerI8_IO_FILEXadL_Z6pcloseEEED2Ev.exit

8:                                                ; preds = %2
  %9 = load ptr, ptr %5, align 8
  %10 = getelementptr inbounds nuw i8, ptr %5, i64 8
  %11 = load i32, ptr %10, align 8
  %12 = invoke noundef nonnull align 8 dereferenceable(60) ptr @_ZN6icu_7710CharString6appendEPKciR10UErrorCode(ptr noundef nonnull align 8 dereferenceable(60) %3, ptr noundef %9, i32 noundef %11, ptr noundef nonnull align 4 dereferenceable(4) %4)
          to label %_ZN6icu_7710CharString6appendENS_11StringPieceER10UErrorCode.exit unwind label %_ZN6icu_778internal16LocalOpenPointerI8_IO_FILEXadL_Z6pcloseEEED2Ev.exit

_ZN6icu_7710CharString6appendENS_11StringPieceER10UErrorCode.exit: ; preds = %8
  %.not = icmp eq i8 %1, 0
  br i1 %.not, label %18, label %13

13:                                               ; preds = %_ZN6icu_7710CharString6appendENS_11StringPieceER10UErrorCode.exit
  %14 = load ptr, ptr @stdout, align 8, !tbaa !20
  %15 = load ptr, ptr %3, align 8, !tbaa !4
  %16 = call i32 (ptr, ptr, ...) @fprintf(ptr noundef %14, ptr noundef nonnull @.str.161, ptr noundef %15) #21
  br label %18

_ZN6icu_778internal16LocalOpenPointerI8_IO_FILEXadL_Z6pcloseEEED2Ev.exit: ; preds = %2, %8
  %17 = landingpad { ptr, i32 }
          cleanup
  call void @llvm.lifetime.end.p0(i64 4, ptr nonnull %4) #21
  call void @_ZN6icu_7715MaybeStackArrayIcLi40EED1Ev(ptr noundef nonnull align 8 dereferenceable(60) %3) #21
  call void @llvm.lifetime.end.p0(i64 64, ptr nonnull %3) #21
  resume { ptr, i32 } %17

18:                                               ; preds = %13, %_ZN6icu_7710CharString6appendENS_11StringPieceER10UErrorCode.exit
  %19 = load ptr, ptr %3, align 8, !tbaa !4
  %20 = call noalias ptr @popen(ptr noundef %19, ptr noundef nonnull @.str.104)
  %.not5 = icmp eq ptr %20, null
  br i1 %.not5, label %_ZN6icu_778internal16LocalOpenPointerI8_IO_FILEXadL_Z6pcloseEEED2Ev.exit14.critedge, label %21

21:                                               ; preds = %18
  %22 = call i64 @fread(ptr noundef nonnull @_ZZL18pkg_getPkgDataPathaP7UOptionE3buf, i64 noundef 1, i64 noundef 511, ptr noundef nonnull %20)
  %23 = icmp eq i64 %22, 0
  br i1 %23, label %24, label %.thread

24:                                               ; preds = %21
  %25 = load ptr, ptr @stderr, align 8, !tbaa !20
  %26 = load ptr, ptr @progname, align 8, !tbaa !16
  %27 = call i32 (ptr, ptr, ...) @fprintf(ptr noundef %25, ptr noundef nonnull @.str.162, ptr noundef %26, ptr noundef %0) #24
  store i8 0, ptr @_ZZL18pkg_getPkgDataPathaP7UOptionE3buf, align 16, !tbaa !22
  br label %.thread

.thread:                                          ; preds = %24, %21
  %.07 = phi i8 [ 0, %24 ], [ 1, %21 ]
  %28 = call noundef i32 @pclose(ptr noundef nonnull %20)
  br label %_ZN6icu_778internal16LocalOpenPointerI8_IO_FILEXadL_Z6pcloseEEED2Ev.exit14

_ZN6icu_778internal16LocalOpenPointerI8_IO_FILEXadL_Z6pcloseEEED2Ev.exit14.critedge: ; preds = %18
  %29 = load ptr, ptr @stderr, align 8, !tbaa !20
  %30 = load ptr, ptr @progname, align 8, !tbaa !16
  %31 = call i32 (ptr, ptr, ...) @fprintf(ptr noundef %29, ptr noundef nonnull @.str.162, ptr noundef %30, ptr noundef %0) #24
  store i8 0, ptr @_ZZL18pkg_getPkgDataPathaP7UOptionE3buf, align 16, !tbaa !22
  br label %_ZN6icu_778internal16LocalOpenPointerI8_IO_FILEXadL_Z6pcloseEEED2Ev.exit14

_ZN6icu_778internal16LocalOpenPointerI8_IO_FILEXadL_Z6pcloseEEED2Ev.exit14: ; preds = %_ZN6icu_778internal16LocalOpenPointerI8_IO_FILEXadL_Z6pcloseEEED2Ev.exit14.critedge, %.thread
  %.08 = phi i8 [ %.07, %.thread ], [ 0, %_ZN6icu_778internal16LocalOpenPointerI8_IO_FILEXadL_Z6pcloseEEED2Ev.exit14.critedge ]
  call void @llvm.lifetime.end.p0(i64 4, ptr nonnull %4) #21
  call void @_ZN6icu_7715MaybeStackArrayIcLi40EED1Ev(ptr noundef nonnull align 8 dereferenceable(60) %3) #21
  call void @llvm.lifetime.end.p0(i64 64, ptr nonnull %3) #21
  ret i8 %.08
}